target datalayout = "e-m:e-p270:32:32-p271:32:32-p272:64:64-i64:64-i128:128-f80:128-n8:16:32:64-S128"
target triple = "x86_64-pc-linux-gnu"

%struct.btMultibodyLink = type { float, %class.btVector3, i32, %class.btQuaternion, %class.btVector3, %class.btVector3, %struct.btSpatialMotionVector, %struct.btSpatialMotionVector, [6 x %struct.btSpatialMotionVector], i32, i32, %class.btQuaternion, %class.btVector3, %class.btQuaternion, %class.btVector3, %class.btVector3, %class.btVector3, %class.btVector3, %class.btVector3, [7 x float], [7 x float], [6 x float], ptr, i32, i32, i32, i32, ptr, %class.btTransform, ptr, ptr, ptr, float, float, float, float, float, float }
%struct.btSpatialMotionVector = type { %class.btVector3, %class.btVector3 }
%class.btQuaternion = type { %class.btQuadWord }
%class.btQuadWord = type { [4 x float] }
%class.btVector3 = type { [4 x float] }
%class.btTransform = type { %class.btMatrix3x3, %class.btVector3 }
%class.btMatrix3x3 = type { [3 x %class.btVector3] }
%class.btMultiBodyJointMotor = type { %class.btMultiBodyConstraint, float, float, float, float, float, float }
%class.btMultiBodyConstraint = type { ptr, ptr, ptr, i32, i32, i32, i32, i32, i32, i32, i8, i32, float, %class.btAlignedObjectArray }
%class.btAlignedObjectArray = type <{ [4 x i8], i32, i32, [4 x i8], ptr, i8, [7 x i8] }>
%class.btMultiBody = type { ptr, ptr, ptr, %class.btVector3, %class.btVector3, %class.btQuaternion, %class.btQuaternion, float, %class.btVector3, %class.btVector3, %class.btVector3, %class.btVector3, %class.btVector3, [4 x i8], %class.btAlignedObjectArray.0, %class.btAlignedObjectArray, %class.btAlignedObjectArray, %class.btAlignedObjectArray, %class.btAlignedObjectArray.2, %class.btAlignedObjectArray.4, %class.btMatrix3x3, %class.btMatrix3x3, %class.btMatrix3x3, %class.btMatrix3x3, i8, i8, i8, i8, i8, float, float, float, ptr, i32, i32, i32, float, float, i8, float, float, i8, i8, i32, i32, i8, i8, i8, i8 }
%class.btAlignedObjectArray.0 = type <{ [4 x i8], i32, i32, [4 x i8], ptr, i8, [7 x i8] }>
%class.btAlignedObjectArray.2 = type <{ [4 x i8], i32, i32, [4 x i8], ptr, i8, [7 x i8] }>
%class.btAlignedObjectArray.4 = type <{ [4 x i8], i32, i32, [4 x i8], ptr, i8, [7 x i8] }>

; Function Attrs: inlinehint mustprogress nounwind uwtable
define linkonce_odr dso_local noundef nonnull align 8 dereferenceable(688) ptr @_ZN20btAlignedObjectArrayI15btMultibodyLinkEixEi(ptr noundef nonnull align 8 dereferenceable(25) %0, i32 noundef %1) #6 comdat align 2 {
  %3 = alloca ptr, align 8
  %4 = alloca i32, align 4
  store ptr %0, ptr %3, align 8, !tbaa !109
  store i32 %1, ptr %4, align 4, !tbaa !9
  %5 = load ptr, ptr %3, align 8
  %6 = getelementptr inbounds nuw %class.btAlignedObjectArray.0, ptr %5, i32 0, i32 4
  %7 = load ptr, ptr %6, align 8, !tbaa !111
  %8 = load i32, ptr %4, align 4, !tbaa !9
  %9 = sext i32 %8 to i64
  %10 = getelementptr inbounds %struct.btMultibodyLink, ptr %7, i64 %9
  ret ptr %10
}

; Function Attrs: mustprogress uwtable
define linkonce_odr dso_local noundef nonnull align 8 dereferenceable(688) ptr @_ZN11btMultiBody7getLinkEi(ptr noundef nonnull align 8 dereferenceable(640) %0, i32 noundef %1) #2 comdat align 2 {
  %3 = alloca ptr, align 8
  %4 = alloca i32, align 4
  store ptr %0, ptr %3, align 8, !tbaa !14
  store i32 %1, ptr %4, align 4, !tbaa !9
  %5 = load ptr, ptr %3, align 8
  %6 = getelementptr inbounds nuw %class.btMultiBody, ptr %5, i32 0, i32 14
  %7 = load i32, ptr %4, align 4, !tbaa !9
  %8 = call noundef nonnull align 8 dereferenceable(688) ptr @_ZN20btAlignedObjectArrayI15btMultibodyLinkEixEi(ptr noundef nonnull align 8 dereferenceable(25) %6, i32 noundef %7)
  ret ptr %8
}

; Function Attrs: mustprogress uwtable
define dso_local void @_ZN21btMultiBodyJointMotorC2EP11btMultiBodyiff(ptr noundef nonnull align 8 dereferenceable(120) %0, ptr noundef %1, i32 noundef %2, float noundef %3, float noundef %4) unnamed_addr #2 align 2 {
  %6 = alloca ptr, align 8
  %7 = alloca ptr, align 8
  %8 = alloca i32, align 4
  %9 = alloca float, align 4
  %10 = alloca float, align 4
  store ptr %0, ptr %6, align 8, !tbaa !12
  store ptr %1, ptr %7, align 8, !tbaa !14
  store i32 %2, ptr %8, align 4, !tbaa !9
  store float %3, ptr %9, align 4, !tbaa !16
  store float %4, ptr %10, align 4, !tbaa !16
  %11 = load ptr, ptr %6, align 8
  %12 = load ptr, ptr %7, align 8, !tbaa !14
  %13 = load ptr, ptr %7, align 8, !tbaa !14
  %14 = load i32, ptr %8, align 4, !tbaa !9
  %15 = load ptr, ptr %7, align 8, !tbaa !14
  %16 = load i32, ptr %8, align 4, !tbaa !9
  %17 = call noundef nonnull align 8 dereferenceable(688) ptr @_ZN11btMultiBody7getLinkEi(ptr noundef nonnull align 8 dereferenceable(640) %15, i32 noundef %16)
  %18 = getelementptr inbounds nuw %struct.btMultibodyLink, ptr %17, i32 0, i32 2
  %19 = load i32, ptr %18, align 4, !tbaa !18
  call void @_ZN21btMultiBodyConstraintC2EP11btMultiBodyS1_iiibi(ptr noundef nonnull align 8 dereferenceable(96) %11, ptr noundef %12, ptr noundef %13, i32 noundef %14, i32 noundef %19, i32 noundef 1, i1 noundef zeroext true, i32 noundef 4)
  store ptr getelementptr inbounds inrange(-16, 136) ({ [19 x ptr] }, ptr @_ZTV21btMultiBodyJointMotor, i32 0, i32 0, i32 2), ptr %11, align 8, !tbaa !30
  %20 = getelementptr inbounds nuw %class.btMultiBodyJointMotor, ptr %11, i32 0, i32 1
  %21 = load float, ptr %9, align 4, !tbaa !16
  store float %21, ptr %20, align 8, !tbaa !32
  %22 = getelementptr inbounds nuw %class.btMultiBodyJointMotor, ptr %11, i32 0, i32 2
  store float 0.000000e+00, ptr %22, align 4, !tbaa !39
  %23 = getelementptr inbounds nuw %class.btMultiBodyJointMotor, ptr %11, i32 0, i32 3
  store float 1.000000e+00, ptr %23, align 8, !tbaa !40
  %24 = getelementptr inbounds nuw %class.btMultiBodyJointMotor, ptr %11, i32 0, i32 4
  store float 0.000000e+00, ptr %24, align 4, !tbaa !41
  %25 = getelementptr inbounds nuw %class.btMultiBodyJointMotor, ptr %11, i32 0, i32 5
  store float 1.000000e+00, ptr %25, align 8, !tbaa !42
  %26 = getelementptr inbounds nuw %class.btMultiBodyJointMotor, ptr %11, i32 0, i32 6
  store float 0x47EFFFFFE0000000, ptr %26, align 4, !tbaa !43
  %27 = load float, ptr %10, align 4, !tbaa !16
  %28 = getelementptr inbounds nuw %class.btMultiBodyConstraint, ptr %11, i32 0, i32 12
  store float %27, ptr %28, align 4, !tbaa !44
  ret void
}