; Function Attrs: mustprogress uwtable
define dso_local void @_ZN21btMultiBodyJointMotorC2EP11btMultiBodyiff(ptr noundef nonnull align 8 dereferenceable(120) %0, ptr noundef %1, i32 noundef %2, float noundef %3, float noundef %4) unnamed_addr #0 align 2 {
  %6 = getelementptr inbounds nuw i8, ptr %1, i64 192
  %7 = load ptr, ptr %6, align 8, !tbaa !4
  %8 = sext i32 %2 to i64
  %9 = getelementptr inbounds %struct.btMultibodyLink, ptr %7, i64 %8, i32 2
  %10 = load i32, ptr %9, align 4, !tbaa !13
  tail call void @_ZN21btMultiBodyConstraintC2EP11btMultiBodyS1_iiibi(ptr noundef nonnull align 8 dereferenceable(96) %0, ptr noundef nonnull %1, ptr noundef nonnull %1, i32 noundef %2, i32 noundef %10, i32 noundef 1, i1 noundef zeroext true, i32 noundef 4)
  store ptr getelementptr inbounds nuw inrange(-16, 136) (i8, ptr @_ZTV21btMultiBodyJointMotor, i64 16), ptr %0, align 8, !tbaa !26
  %11 = getelementptr inbounds nuw i8, ptr %0, i64 96
  store float %3, ptr %11, align 8, !tbaa !28
  %12 = getelementptr inbounds nuw i8, ptr %0, i64 100
  store float 0.000000e+00, ptr %12, align 4, !tbaa !35
  %13 = getelementptr inbounds nuw i8, ptr %0, i64 104
  store float 1.000000e+00, ptr %13, align 8, !tbaa !36
  %14 = getelementptr inbounds nuw i8, ptr %0, i64 108
  store float 0.000000e+00, ptr %14, align 4, !tbaa !37
  %15 = getelementptr inbounds nuw i8, ptr %0, i64 112
  store float 1.000000e+00, ptr %15, align 8, !tbaa !38
  %16 = getelementptr inbounds nuw i8, ptr %0, i64 116
  store float 0x47EFFFFFE0000000, ptr %16, align 4, !tbaa !39
  %17 = getelementptr inbounds nuw i8, ptr %0, i64 60
  store float %4, ptr %17, align 4, !tbaa !40
  ret void
}